target datalayout = "e-m:e-p270:32:32-p271:32:32-p272:64:64-i64:64-i128:128-f80:128-n8:16:32:64-S128"
target triple = "x86_64-pc-linux-gnu"

%struct._ir_live_interval = type { i8, i8, i16, %union.anon.17, %union.anon.18, i32, %struct._ir_live_range, ptr, ptr, ptr, ptr }
%union.anon.17 = type { i32 }
%union.anon.18 = type { i32 }
%struct._ir_live_range = type { i32, i32, ptr }

; Function Attrs: nounwind uwtable
define internal void @ir_add_to_unhandled(ptr noundef %0, ptr noundef %1) #0 {
  %3 = alloca ptr, align 8
  %4 = alloca ptr, align 8
  %5 = alloca i32, align 4
  %6 = alloca ptr, align 8
  store ptr %0, ptr %3, align 8
  store ptr %1, ptr %4, align 8
  %7 = load ptr, ptr %4, align 8
  %8 = getelementptr inbounds %struct._ir_live_interval, ptr %7, i32 0, i32 6
  %9 = getelementptr inbounds %struct._ir_live_range, ptr %8, i32 0, i32 0
  %10 = load i32, ptr %9, align 8
  store i32 %10, ptr %5, align 4
  %11 = load ptr, ptr %3, align 8
  %12 = load ptr, ptr %11, align 8
  %13 = icmp eq ptr %12, null
  br i1 %13, label %62, label %14

14:                                               ; preds = %2
  %15 = load i32, ptr %5, align 4
  %16 = load ptr, ptr %3, align 8
  %17 = load ptr, ptr %16, align 8
  %18 = getelementptr inbounds %struct._ir_live_interval, ptr %17, i32 0, i32 6
  %19 = getelementptr inbounds %struct._ir_live_range, ptr %18, i32 0, i32 0
  %20 = load i32, ptr %19, align 8
  %21 = icmp slt i32 %15, %20
  br i1 %21, label %62, label %22

22:                                               ; preds = %14
  %23 = load i32, ptr %5, align 4
  %24 = load ptr, ptr %3, align 8
  %25 = load ptr, ptr %24, align 8
  %26 = getelementptr inbounds %struct._ir_live_interval, ptr %25, i32 0, i32 6
  %27 = getelementptr inbounds %struct._ir_live_range, ptr %26, i32 0, i32 0
  %28 = load i32, ptr %27, align 8
  %29 = icmp eq i32 %23, %28
  br i1 %29, label %30, label %45

30:                                               ; preds = %22
  %31 = load ptr, ptr %4, align 8
  %32 = getelementptr inbounds %struct._ir_live_interval, ptr %31, i32 0, i32 2
  %33 = load i16, ptr %32, align 2
  %34 = zext i16 %33 to i32
  %35 = and i32 %34, 12
  %36 = icmp ne i32 %35, 0
  br i1 %36, label %37, label %45

37:                                               ; preds = %30
  %38 = load ptr, ptr %3, align 8
  %39 = load ptr, ptr %38, align 8
  %40 = getelementptr inbounds %struct._ir_live_interval, ptr %39, i32 0, i32 2
  %41 = load i16, ptr %40, align 2
  %42 = zext i16 %41 to i32
  %43 = and i32 %42, 12
  %44 = icmp ne i32 %43, 0
  br i1 %44, label %45, label %62

45:                                               ; preds = %37, %30, %22
  %46 = load i32, ptr %5, align 4
  %47 = load ptr, ptr %3, align 8
  %48 = load ptr, ptr %47, align 8
  %49 = getelementptr inbounds %struct._ir_live_interval, ptr %48, i32 0, i32 6
  %50 = getelementptr inbounds %struct._ir_live_range, ptr %49, i32 0, i32 0
  %51 = load i32, ptr %50, align 8
  %52 = icmp eq i32 %46, %51
  br i1 %52, label %53, label %69

53:                                               ; preds = %45
  %54 = load ptr, ptr %4, align 8
  %55 = getelementptr inbounds %struct._ir_live_interval, ptr %54, i32 0, i32 3
  %56 = load i32, ptr %55, align 4
  %57 = load ptr, ptr %3, align 8
  %58 = load ptr, ptr %57, align 8
  %59 = getelementptr inbounds %struct._ir_live_interval, ptr %58, i32 0, i32 3
  %60 = load i32, ptr %59, align 4
  %61 = icmp sgt i32 %56, %60
  br i1 %61, label %62, label %69

62:                                               ; preds = %53, %37, %14, %2
  %63 = load ptr, ptr %3, align 8
  %64 = load ptr, ptr %63, align 8
  %65 = load ptr, ptr %4, align 8
  %66 = getelementptr inbounds %struct._ir_live_interval, ptr %65, i32 0, i32 10
  store ptr %64, ptr %66, align 8
  %67 = load ptr, ptr %4, align 8
  %68 = load ptr, ptr %3, align 8
  store ptr %67, ptr %68, align 8
  br label %144

69:                                               ; preds = %53, %45
  %70 = load ptr, ptr %3, align 8
  %71 = load ptr, ptr %70, align 8
  store ptr %71, ptr %6, align 8
  br label %72

72:                                               ; preds = %131, %69
  %73 = load ptr, ptr %6, align 8
  %74 = getelementptr inbounds %struct._ir_live_interval, ptr %73, i32 0, i32 10
  %75 = load ptr, ptr %74, align 8
  %76 = icmp ne ptr %75, null
  br i1 %76, label %77, label %135

77:                                               ; preds = %72
  %78 = load i32, ptr %5, align 4
  %79 = load ptr, ptr %6, align 8
  %80 = getelementptr inbounds %struct._ir_live_interval, ptr %79, i32 0, i32 10
  %81 = load ptr, ptr %80, align 8
  %82 = getelementptr inbounds %struct._ir_live_interval, ptr %81, i32 0, i32 6
  %83 = getelementptr inbounds %struct._ir_live_range, ptr %82, i32 0, i32 0
  %84 = load i32, ptr %83, align 8
  %85 = icmp slt i32 %78, %84
  br i1 %85, label %130, label %86

86:                                               ; preds = %77
  %87 = load i32, ptr %5, align 4
  %88 = load ptr, ptr %6, align 8
  %89 = getelementptr inbounds %struct._ir_live_interval, ptr %88, i32 0, i32 10
  %90 = load ptr, ptr %89, align 8
  %91 = getelementptr inbounds %struct._ir_live_interval, ptr %90, i32 0, i32 6
  %92 = getelementptr inbounds %struct._ir_live_range, ptr %91, i32 0, i32 0
  %93 = load i32, ptr %92, align 8
  %94 = icmp eq i32 %87, %93
  br i1 %94, label %95, label %111

95:                                               ; preds = %86
  %96 = load ptr, ptr %4, align 8
  %97 = getelementptr inbounds %struct._ir_live_interval, ptr %96, i32 0, i32 2
  %98 = load i16, ptr %97, align 2
  %99 = zext i16 %98 to i32
  %100 = and i32 %99, 12
  %101 = icmp ne i32 %100, 0
  br i1 %101, label %102, label %111

102:                                              ; preds = %95
  %103 = load ptr, ptr %6, align 8
  %104 = getelementptr inbounds %struct._ir_live_interval, ptr %103, i32 0, i32 10
  %105 = load ptr, ptr %104, align 8
  %106 = getelementptr inbounds %struct._ir_live_interval, ptr %105, i32 0, i32 2
  %107 = load i16, ptr %106, align 2
  %108 = zext i16 %107 to i32
  %109 = and i32 %108, 12
  %110 = icmp ne i32 %109, 0
  br i1 %110, label %111, label %130

111:                                              ; preds = %102, %95, %86
  %112 = load i32, ptr %5, align 4
  %113 = load ptr, ptr %6, align 8
  %114 = getelementptr inbounds %struct._ir_live_interval, ptr %113, i32 0, i32 10
  %115 = load ptr, ptr %114, align 8
  %116 = getelementptr inbounds %struct._ir_live_interval, ptr %115, i32 0, i32 6
  %117 = getelementptr inbounds %struct._ir_live_range, ptr %116, i32 0, i32 0
  %118 = load i32, ptr %117, align 8
  %119 = icmp eq i32 %112, %118
  br i1 %119, label %120, label %131

120:                                              ; preds = %111
  %121 = load ptr, ptr %4, align 8
  %122 = getelementptr inbounds %struct._ir_live_interval, ptr %121, i32 0, i32 3
  %123 = load i32, ptr %122, align 4
  %124 = load ptr, ptr %6, align 8
  %125 = getelementptr inbounds %struct._ir_live_interval, ptr %124, i32 0, i32 10
  %126 = load ptr, ptr %125, align 8
  %127 = getelementptr inbounds %struct._ir_live_interval, ptr %126, i32 0, i32 3
  %128 = load i32, ptr %127, align 4
  %129 = icmp sgt i32 %123, %128
  br i1 %129, label %130, label %131

130:                                              ; preds = %120, %102, %77
  br label %135

131:                                              ; preds = %120, %111
  %132 = load ptr, ptr %6, align 8
  %133 = getelementptr inbounds %struct._ir_live_interval, ptr %132, i32 0, i32 10
  %134 = load ptr, ptr %133, align 8
  store ptr %134, ptr %6, align 8
  br label %72

135:                                              ; preds = %130, %72
  %136 = load ptr, ptr %6, align 8
  %137 = getelementptr inbounds %struct._ir_live_interval, ptr %136, i32 0, i32 10
  %138 = load ptr, ptr %137, align 8
  %139 = load ptr, ptr %4, align 8
  %140 = getelementptr inbounds %struct._ir_live_interval, ptr %139, i32 0, i32 10
  store ptr %138, ptr %140, align 8
  %141 = load ptr, ptr %4, align 8
  %142 = load ptr, ptr %6, align 8
  %143 = getelementptr inbounds %struct._ir_live_interval, ptr %142, i32 0, i32 10
  store ptr %141, ptr %143, align 8
  br label %144

144:                                              ; preds = %135, %62
  ret void
}