; Function Attrs: nofree norecurse nosync nounwind memory(readwrite, inaccessiblemem: none) uwtable
define internal fastcc void @ir_add_to_unhandled(ptr nocapture noundef %0, ptr noundef %1) unnamed_addr #8 {
  %3 = getelementptr inbounds i8, ptr %1, i64 16
  %4 = load i32, ptr %3, align 8
  %5 = load ptr, ptr %0, align 8
  %6 = icmp eq ptr %5, null
  br i1 %6, label %._crit_edge, label %7

7:                                                ; preds = %2
  %8 = getelementptr inbounds i8, ptr %5, i64 16
  %9 = load i32, ptr %8, align 8
  %10 = icmp slt i32 %4, %9
  br i1 %10, label %._crit_edge, label %11

11:                                               ; preds = %7
  %12 = icmp eq i32 %4, %9
  br i1 %12, label %13, label %27

13:                                               ; preds = %11
  %14 = getelementptr inbounds i8, ptr %1, i64 2
  %15 = load i16, ptr %14, align 2
  %16 = and i16 %15, 12
  %.not = icmp eq i16 %16, 0
  br i1 %.not, label %21, label %17

17:                                               ; preds = %13
  %18 = getelementptr inbounds i8, ptr %5, i64 2
  %19 = load i16, ptr %18, align 2
  %20 = and i16 %19, 12
  %.not37 = icmp eq i16 %20, 0
  br i1 %.not37, label %._crit_edge, label %21

21:                                               ; preds = %17, %13
  %22 = getelementptr inbounds i8, ptr %1, i64 4
  %23 = load i32, ptr %22, align 4
  %24 = getelementptr inbounds i8, ptr %5, i64 4
  %25 = load i32, ptr %24, align 4
  %26 = icmp sgt i32 %23, %25
  br i1 %26, label %._crit_edge, label %27

27:                                               ; preds = %11, %21
  %28 = getelementptr inbounds i8, ptr %5, i64 56
  %29 = load ptr, ptr %28, align 8
  %.not3845 = icmp eq ptr %29, null
  br i1 %.not3845, label %._crit_edge, label %.lr.ph

.lr.ph:                                           ; preds = %27
  %30 = getelementptr inbounds i8, ptr %1, i64 2
  %31 = getelementptr inbounds i8, ptr %1, i64 4
  %32 = getelementptr inbounds i8, ptr %29, i64 16
  %33 = load i32, ptr %32, align 8
  %34 = icmp slt i32 %4, %33
  br i1 %34, label %._crit_edge, label %.lr.ph57

35:                                               ; preds = %54
  %36 = getelementptr inbounds i8, ptr %56, i64 16
  %37 = load i32, ptr %36, align 8
  %38 = icmp slt i32 %4, %37
  br i1 %38, label %._crit_edge, label %.lr.ph57

.lr.ph57:                                         ; preds = %.lr.ph, %35
  %39 = phi i32 [ %37, %35 ], [ %33, %.lr.ph ]
  %40 = phi ptr [ %55, %35 ], [ %28, %.lr.ph ]
  %.056 = phi ptr [ %56, %35 ], [ %29, %.lr.ph ]
  %41 = icmp eq i32 %4, %39
  br i1 %41, label %42, label %54

42:                                               ; preds = %.lr.ph57
  %43 = load i16, ptr %30, align 2
  %44 = and i16 %43, 12
  %.not39 = icmp eq i16 %44, 0
  br i1 %.not39, label %49, label %45

45:                                               ; preds = %42
  %46 = getelementptr inbounds i8, ptr %.056, i64 2
  %47 = load i16, ptr %46, align 2
  %48 = and i16 %47, 12
  %.not40 = icmp eq i16 %48, 0
  br i1 %.not40, label %._crit_edge, label %49

49:                                               ; preds = %45, %42
  %50 = load i32, ptr %31, align 4
  %51 = getelementptr inbounds i8, ptr %.056, i64 4
  %52 = load i32, ptr %51, align 4
  %53 = icmp sgt i32 %50, %52
  br i1 %53, label %._crit_edge, label %54

54:                                               ; preds = %.lr.ph57, %49
  %55 = getelementptr inbounds i8, ptr %.056, i64 56
  %56 = load ptr, ptr %55, align 8
  %.not38 = icmp eq ptr %56, null
  br i1 %.not38, label %._crit_edge, label %35

._crit_edge:                                      ; preds = %54, %49, %45, %35, %.lr.ph, %27, %2, %7, %17, %21
  %.lcssa.sink = phi ptr [ %5, %21 ], [ %5, %17 ], [ %5, %7 ], [ %5, %2 ], [ null, %27 ], [ %29, %.lr.ph ], [ %56, %35 ], [ %.056, %45 ], [ %.056, %49 ], [ null, %54 ]
  %.lcssa43.sink = phi ptr [ %0, %21 ], [ %0, %17 ], [ %0, %7 ], [ %0, %2 ], [ %28, %27 ], [ %28, %.lr.ph ], [ %55, %35 ], [ %40, %45 ], [ %40, %49 ], [ %55, %54 ]
  %57 = getelementptr inbounds i8, ptr %1, i64 56
  store ptr %.lcssa.sink, ptr %57, align 8
  store ptr %1, ptr %.lcssa43.sink, align 8
  ret void
}